; Function Attrs: nounwind uwtable
define internal void @evhandler_reg_callbk(i32 noundef %0, i64 %1, ptr noundef initializes((0, 4)) %2) #1 {
  fence acquire
  store i32 %0, ptr %2, align 8, !tbaa !185
  fence release
  %4 = getelementptr inbounds nuw i8, ptr %2, i64 128
  %5 = tail call i32 @pthread_mutex_lock(ptr noundef nonnull %4) #18
  %6 = getelementptr inbounds nuw i8, ptr %2, i64 216
  store volatile i8 0, ptr %6, align 8, !tbaa !9
  fence release
  %7 = getelementptr inbounds nuw i8, ptr %2, i64 168
  %8 = tail call i32 @pthread_cond_broadcast(ptr noundef nonnull %7) #18
  %9 = tail call i32 @pthread_mutex_unlock(ptr noundef nonnull %4) #18
  ret void
}